target datalayout = "e-m:e-p270:32:32-p271:32:32-p272:64:64-i64:64-i128:128-f80:128-n8:16:32:64-S128"
target triple = "x86_64-pc-linux-gnu"

%"class.gmx::FlagsTemplate" = type { i64 }
%"class.std::__cxx11::basic_string" = type { %"struct.std::__cxx11::basic_string<char>::_Alloc_hider", i64, %union.anon }
%"struct.std::__cxx11::basic_string<char>::_Alloc_hider" = type { ptr }
%union.anon = type { i64, [8 x i8] }
%"class.gmx::FileNameOptionStorage" = type <{ %"class.gmx::OptionStorageTemplateSimple.base", [7 x i8], %"class.gmx::FileNameOptionInfo", ptr, i32, [4 x i8], ptr, i8, i8, i8, i8, [4 x i8] }>
%"class.gmx::OptionStorageTemplateSimple.base" = type <{ %"class.gmx::OptionStorageTemplate", %"class.gmx::OptionValueConverterSimple", i8 }>
%"class.gmx::OptionStorageTemplate" = type { %"class.gmx::AbstractOptionStorage.base", %"class.std::vector", %"class.std::unique_ptr", %"class.std::unique_ptr.5" }
%"class.gmx::AbstractOptionStorage.base" = type <{ ptr, %"class.std::__cxx11::basic_string", %"class.std::__cxx11::basic_string", %"class.gmx::FlagsTemplate", ptr, i32, i32, i8, i8 }>
%"class.std::vector" = type { %"struct.std::_Vector_base" }
%"struct.std::_Vector_base" = type { %"struct.std::_Vector_base<std::__cxx11::basic_string<char>, std::allocator<std::__cxx11::basic_string<char>>>::_Vector_impl" }
%"struct.std::_Vector_base<std::__cxx11::basic_string<char>, std::allocator<std::__cxx11::basic_string<char>>>::_Vector_impl" = type { %"struct.std::_Vector_base<std::__cxx11::basic_string<char>, std::allocator<std::__cxx11::basic_string<char>>>::_Vector_impl_data" }
%"struct.std::_Vector_base<std::__cxx11::basic_string<char>, std::allocator<std::__cxx11::basic_string<char>>>::_Vector_impl_data" = type { ptr, ptr, ptr }
%"class.std::unique_ptr" = type { %"struct.std::__uniq_ptr_data" }
%"struct.std::__uniq_ptr_data" = type { %"class.std::__uniq_ptr_impl" }
%"class.std::__uniq_ptr_impl" = type { %"class.std::tuple" }
%"class.std::tuple" = type { %"struct.std::_Tuple_impl" }
%"struct.std::_Tuple_impl" = type { %"struct.std::_Head_base.4" }
%"struct.std::_Head_base.4" = type { ptr }
%"class.std::unique_ptr.5" = type { %"struct.std::__uniq_ptr_data.6" }
%"struct.std::__uniq_ptr_data.6" = type { %"class.std::__uniq_ptr_impl.7" }
%"class.std::__uniq_ptr_impl.7" = type { %"class.std::tuple.8" }
%"class.std::tuple.8" = type { %"struct.std::_Tuple_impl.9" }
%"struct.std::_Tuple_impl.9" = type { %"struct.std::_Head_base.12" }
%"struct.std::_Head_base.12" = type { ptr }
%"class.gmx::OptionValueConverterSimple" = type { %"class.std::map" }
%"class.std::map" = type { %"class.std::_Rb_tree" }
%"class.std::_Rb_tree" = type { %"struct.std::_Rb_tree<std::type_index, std::pair<const std::type_index, std::function<std::__cxx11::basic_string<char> (const gmx::Any &)>>, std::_Select1st<std::pair<const std::type_index, std::function<std::__cxx11::basic_string<char> (const gmx::Any &)>>>, std::less<std::type_index>>::_Rb_tree_impl" }
%"struct.std::_Rb_tree<std::type_index, std::pair<const std::type_index, std::function<std::__cxx11::basic_string<char> (const gmx::Any &)>>, std::_Select1st<std::pair<const std::type_index, std::function<std::__cxx11::basic_string<char> (const gmx::Any &)>>>, std::less<std::type_index>>::_Rb_tree_impl" = type { %"struct.std::_Rb_tree_key_compare", %"struct.std::_Rb_tree_header" }
%"struct.std::_Rb_tree_key_compare" = type { %"struct.std::less" }
%"struct.std::less" = type { i8 }
%"struct.std::_Rb_tree_header" = type { %"struct.std::_Rb_tree_node_base", i64 }
%"struct.std::_Rb_tree_node_base" = type { i32, ptr, ptr, ptr }
%"class.gmx::FileNameOptionInfo" = type { %"class.gmx::OptionInfo" }
%"class.gmx::OptionInfo" = type { ptr, ptr }
%"class.gmx::ArrayRef.49" = type { %"struct.gmx::ArrayRefIter.50", %"struct.gmx::ArrayRefIter.50" }
%"struct.gmx::ArrayRefIter.50" = type { ptr }

; Function Attrs: mustprogress nounwind uwtable
define linkonce_odr void @_ZN3gmx8ArrayRefIKiEC2EPS1_S3_(ptr noundef nonnull align 8 dereferenceable(16) %0, ptr noundef %1, ptr noundef %2) unnamed_addr #1 comdat align 2 {
  %4 = alloca ptr, align 8
  %5 = alloca ptr, align 8
  %6 = alloca ptr, align 8
  store ptr %0, ptr %4, align 8
  store ptr %1, ptr %5, align 8
  store ptr %2, ptr %6, align 8
  %7 = load ptr, ptr %4, align 8
  %8 = getelementptr inbounds %"class.gmx::ArrayRef.49", ptr %7, i32 0, i32 0
  %9 = load ptr, ptr %5, align 8
  call void @_ZN3gmx12ArrayRefIterIKiEC2EPS1_(ptr noundef nonnull align 8 dereferenceable(8) %8, ptr noundef %9) #12
  %10 = getelementptr inbounds %"class.gmx::ArrayRef.49", ptr %7, i32 0, i32 1
  %11 = load ptr, ptr %6, align 8
  call void @_ZN3gmx12ArrayRefIterIKiEC2EPS1_(ptr noundef nonnull align 8 dereferenceable(8) %10, ptr noundef %11) #12
  ret void
}

; Function Attrs: mustprogress nounwind uwtable
define linkonce_odr void @_ZN3gmx12ArrayRefIterIKiEC2EPS1_(ptr noundef nonnull align 8 dereferenceable(8) %0, ptr noundef %1) unnamed_addr #1 comdat align 2 {
  %3 = alloca ptr, align 8
  %4 = alloca ptr, align 8
  store ptr %0, ptr %3, align 8
  store ptr %1, ptr %4, align 8
  %5 = load ptr, ptr %3, align 8
  %6 = getelementptr inbounds %"struct.gmx::ArrayRefIter.50", ptr %5, i32 0, i32 0
  %7 = load ptr, ptr %4, align 8
  store ptr %7, ptr %6, align 8
  ret void
}

; Function Attrs: mustprogress uwtable
define linkonce_odr { ptr, ptr } @_ZN3gmx22constArrayRefFromArrayIiEENS_8ArrayRefIKT_EEPS3_m(ptr noundef %0, i64 noundef %1) #0 comdat {
  %3 = alloca %"class.gmx::ArrayRef.49", align 8
  %4 = alloca ptr, align 8
  %5 = alloca i64, align 8
  store ptr %0, ptr %4, align 8
  store i64 %1, ptr %5, align 8
  %6 = load ptr, ptr %4, align 8
  %7 = icmp ne ptr %6, null
  br i1 %7, label %8, label %13

8:                                                ; preds = %2
  %9 = load ptr, ptr %4, align 8
  %10 = load ptr, ptr %4, align 8
  %11 = load i64, ptr %5, align 8
  %12 = getelementptr inbounds i32, ptr %10, i64 %11
  call void @_ZN3gmx8ArrayRefIKiEC2EPS1_S3_(ptr noundef nonnull align 8 dereferenceable(16) %3, ptr noundef %9, ptr noundef %12)
  br label %14

13:                                               ; preds = %2
  call void @_ZN3gmx8ArrayRefIKiEC2Ev(ptr noundef nonnull align 8 dereferenceable(16) %3)
  br label %14

14:                                               ; preds = %13, %8
  %15 = load { ptr, ptr }, ptr %3, align 8
  ret { ptr, ptr } %15
}

; Function Attrs: mustprogress nounwind uwtable
define linkonce_odr void @_ZN3gmx8ArrayRefIKiEC2Ev(ptr noundef nonnull align 8 dereferenceable(16) %0) unnamed_addr #1 comdat align 2 {
  %2 = alloca ptr, align 8
  store ptr %0, ptr %2, align 8
  %3 = load ptr, ptr %2, align 8
  %4 = getelementptr inbounds %"class.gmx::ArrayRef.49", ptr %3, i32 0, i32 0
  call void @_ZN3gmx12ArrayRefIterIKiEC2EPS1_(ptr noundef nonnull align 8 dereferenceable(8) %4, ptr noundef null) #12
  %5 = getelementptr inbounds %"class.gmx::ArrayRef.49", ptr %3, i32 0, i32 1
  call void @_ZN3gmx12ArrayRefIterIKiEC2EPS1_(ptr noundef nonnull align 8 dereferenceable(8) %5, ptr noundef null) #12
  ret void
}

; Function Attrs: mustprogress nounwind uwtable
define linkonce_odr noundef nonnull align 8 dereferenceable(98) ptr @_ZNK3gmx10OptionInfo6optionEv(ptr noundef nonnull align 8 dereferenceable(16) %0) #1 comdat align 2 {
  %2 = alloca ptr, align 8
  store ptr %0, ptr %2, align 8
  %3 = load ptr, ptr %2, align 8
  %4 = getelementptr inbounds %"class.gmx::OptionInfo", ptr %3, i32 0, i32 1
  %5 = load ptr, ptr %4, align 8
  ret ptr %5
}

; Function Attrs: mustprogress uwtable
define { ptr, ptr } @_ZNK3gmx21FileNameOptionStorage9fileTypesEv(ptr noundef nonnull align 8 dereferenceable(244) %0) #0 align 2 {
  %2 = alloca %"class.gmx::ArrayRef.49", align 8
  %3 = alloca ptr, align 8
  %4 = alloca i32, align 4
  store ptr %0, ptr %3, align 8
  %5 = load ptr, ptr %3, align 8
  %6 = getelementptr inbounds %"class.gmx::FileNameOptionStorage", ptr %5, i32 0, i32 4
  %7 = load i32, ptr %6, align 8
  %8 = icmp slt i32 %7, 0
  br i1 %8, label %9, label %10

9:                                                ; preds = %1
  call void @_ZN3gmx8ArrayRefIKiEC2Ev(ptr noundef nonnull align 8 dereferenceable(16) %2)
  br label %34

10:                                               ; preds = %1
  %11 = getelementptr inbounds %"class.gmx::FileNameOptionStorage", ptr %5, i32 0, i32 4
  %12 = load i32, ptr %11, align 8
  %13 = call noundef i32 @_Z17ftp2generic_counti(i32 noundef %12)
  store i32 %13, ptr %4, align 4
  %14 = load i32, ptr %4, align 4
  %15 = icmp sgt i32 %14, 0
  br i1 %15, label %16, label %27

16:                                               ; preds = %10
  %17 = getelementptr inbounds %"class.gmx::FileNameOptionStorage", ptr %5, i32 0, i32 4
  %18 = load i32, ptr %17, align 8
  %19 = call noundef ptr @_Z16ftp2generic_listi(i32 noundef %18)
  %20 = load i32, ptr %4, align 4
  %21 = sext i32 %20 to i64
  %22 = call { ptr, ptr } @_ZN3gmx22constArrayRefFromArrayIiEENS_8ArrayRefIKT_EEPS3_m(ptr noundef %19, i64 noundef %21)
  %23 = getelementptr inbounds { ptr, ptr }, ptr %2, i32 0, i32 0
  %24 = extractvalue { ptr, ptr } %22, 0
  store ptr %24, ptr %23, align 8
  %25 = getelementptr inbounds { ptr, ptr }, ptr %2, i32 0, i32 1
  %26 = extractvalue { ptr, ptr } %22, 1
  store ptr %26, ptr %25, align 8
  br label %34

27:                                               ; preds = %10
  %28 = getelementptr inbounds %"class.gmx::FileNameOptionStorage", ptr %5, i32 0, i32 4
  %29 = call { ptr, ptr } @_ZN3gmx22constArrayRefFromArrayIiEENS_8ArrayRefIKT_EEPS3_m(ptr noundef %28, i64 noundef 1)
  %30 = getelementptr inbounds { ptr, ptr }, ptr %2, i32 0, i32 0
  %31 = extractvalue { ptr, ptr } %29, 0
  store ptr %31, ptr %30, align 8
  %32 = getelementptr inbounds { ptr, ptr }, ptr %2, i32 0, i32 1
  %33 = extractvalue { ptr, ptr } %29, 1
  store ptr %33, ptr %32, align 8
  br label %34

34:                                               ; preds = %27, %16, %9
  %35 = load { ptr, ptr }, ptr %2, align 8
  ret { ptr, ptr } %35
}

; Function Attrs: mustprogress uwtable
define noundef nonnull align 8 dereferenceable(244) ptr @_ZNK3gmx18FileNameOptionInfo6optionEv(ptr noundef nonnull align 8 dereferenceable(16) %0) #0 align 2 {
  %2 = alloca ptr, align 8
  store ptr %0, ptr %2, align 8
  %3 = load ptr, ptr %2, align 8
  %4 = call noundef nonnull align 8 dereferenceable(98) ptr @_ZNK3gmx10OptionInfo6optionEv(ptr noundef nonnull align 8 dereferenceable(16) %3)
  ret ptr %4
}

; Function Attrs: mustprogress uwtable
define { ptr, ptr } @_ZNK3gmx18FileNameOptionInfo9fileTypesEv(ptr noundef nonnull align 8 dereferenceable(16) %0) #0 align 2 {
  %2 = alloca %"class.gmx::ArrayRef.49", align 8
  %3 = alloca ptr, align 8
  store ptr %0, ptr %3, align 8
  %4 = load ptr, ptr %3, align 8
  %5 = call noundef nonnull align 8 dereferenceable(244) ptr @_ZNK3gmx18FileNameOptionInfo6optionEv(ptr noundef nonnull align 8 dereferenceable(16) %4)
  %6 = call { ptr, ptr } @_ZNK3gmx21FileNameOptionStorage9fileTypesEv(ptr noundef nonnull align 8 dereferenceable(244) %5)
  %7 = getelementptr inbounds { ptr, ptr }, ptr %2, i32 0, i32 0
  %8 = extractvalue { ptr, ptr } %6, 0
  store ptr %8, ptr %7, align 8
  %9 = getelementptr inbounds { ptr, ptr }, ptr %2, i32 0, i32 1
  %10 = extractvalue { ptr, ptr } %6, 1
  store ptr %10, ptr %9, align 8
  %11 = load { ptr, ptr }, ptr %2, align 8
  ret { ptr, ptr } %11
}