; Function Attrs: mustprogress uwtable
define { ptr, ptr } @_ZNK3gmx18FileNameOptionInfo9fileTypesEv(ptr nocapture noundef nonnull readonly align 8 dereferenceable(16) %0) local_unnamed_addr #0 align 2 {
  %2 = getelementptr inbounds i8, ptr %0, i64 8
  %3 = load ptr, ptr %2, align 8
  %4 = getelementptr inbounds i8, ptr %3, i64 224
  %5 = load i32, ptr %4, align 8
  %6 = icmp slt i32 %5, 0
  br i1 %6, label %_ZNK3gmx21FileNameOptionStorage9fileTypesEv.exit, label %7

7:                                                ; preds = %1
  %8 = tail call noundef i32 @_Z17ftp2generic_counti(i32 noundef %5)
  %9 = icmp sgt i32 %8, 0
  br i1 %9, label %10, label %15

10:                                               ; preds = %7
  %11 = load i32, ptr %4, align 8
  %12 = tail call noundef ptr @_Z16ftp2generic_listi(i32 noundef %11)
  %13 = zext nneg i32 %8 to i64
  %.not.i.i = icmp eq ptr %12, null
  %14 = getelementptr inbounds i32, ptr %12, i64 %13
  %spec.select.i.i = select i1 %.not.i.i, ptr null, ptr %14
  br label %_ZNK3gmx21FileNameOptionStorage9fileTypesEv.exit

15:                                               ; preds = %7
  %16 = getelementptr inbounds i8, ptr %3, i64 228
  br label %_ZNK3gmx21FileNameOptionStorage9fileTypesEv.exit

_ZNK3gmx21FileNameOptionStorage9fileTypesEv.exit: ; preds = %1, %10, %15
  %.sroa.0.0.i = phi ptr [ %12, %10 ], [ %4, %15 ], [ null, %1 ]
  %.sroa.4.0.i = phi ptr [ %spec.select.i.i, %10 ], [ %16, %15 ], [ null, %1 ]
  %.fca.0.insert.i = insertvalue { ptr, ptr } poison, ptr %.sroa.0.0.i, 0
  %.fca.1.insert.i = insertvalue { ptr, ptr } %.fca.0.insert.i, ptr %.sroa.4.0.i, 1
  ret { ptr, ptr } %.fca.1.insert.i
}